target datalayout = "e-m:e-p270:32:32-p271:32:32-p272:64:64-i64:64-i128:128-f80:128-n8:16:32:64-S128"
target triple = "x86_64-pc-linux-gnu"

%struct.GlyphBlitVector = type { i32, ptr }
%struct.ImageRef = type { ptr, ptr, i32, i32, i32, i32, i32, i32 }
%struct.SurfaceDataBounds = type { i32, i32, i32, i32 }

; Function Attrs: nounwind uwtable
define hidden i32 @RefineBounds(ptr noundef %0, ptr noundef %1) #0 {
  %3 = alloca ptr, align 8
  %4 = alloca ptr, align 8
  %5 = alloca i32, align 4
  %6 = alloca i32, align 4
  %7 = alloca i32, align 4
  %8 = alloca i32, align 4
  %9 = alloca i32, align 4
  %10 = alloca %struct.ImageRef, align 8
  %11 = alloca i32, align 4
  %12 = alloca %struct.SurfaceDataBounds, align 4
  store ptr %0, ptr %3, align 8
  store ptr %1, ptr %4, align 8
  %13 = load ptr, ptr %3, align 8
  %14 = getelementptr inbounds %struct.GlyphBlitVector, ptr %13, i32 0, i32 0
  %15 = load i32, ptr %14, align 8
  store i32 %15, ptr %11, align 4
  %16 = getelementptr inbounds %struct.SurfaceDataBounds, ptr %12, i32 0, i32 1
  store i32 2147483647, ptr %16, align 4
  %17 = getelementptr inbounds %struct.SurfaceDataBounds, ptr %12, i32 0, i32 0
  store i32 2147483647, ptr %17, align 4
  %18 = getelementptr inbounds %struct.SurfaceDataBounds, ptr %12, i32 0, i32 3
  store i32 -2147483648, ptr %18, align 4
  %19 = getelementptr inbounds %struct.SurfaceDataBounds, ptr %12, i32 0, i32 2
  store i32 -2147483648, ptr %19, align 4
  store i32 0, ptr %5, align 4
  br label %20

20:                                               ; preds = %75, %2
  %21 = load i32, ptr %5, align 4
  %22 = load i32, ptr %11, align 4
  %23 = icmp slt i32 %21, %22
  br i1 %23, label %24, label %78

24:                                               ; preds = %20
  %25 = load ptr, ptr %3, align 8
  %26 = getelementptr inbounds %struct.GlyphBlitVector, ptr %25, i32 0, i32 1
  %27 = load ptr, ptr %26, align 8
  %28 = load i32, ptr %5, align 4
  %29 = sext i32 %28 to i64
  %30 = getelementptr inbounds %struct.ImageRef, ptr %27, i64 %29
  call void @llvm.memcpy.p0.p0.i64(ptr align 8 %10, ptr align 8 %30, i64 40, i1 false)
  %31 = getelementptr inbounds %struct.ImageRef, ptr %10, i32 0, i32 6
  %32 = load i32, ptr %31, align 8
  store i32 %32, ptr %6, align 4
  %33 = getelementptr inbounds %struct.ImageRef, ptr %10, i32 0, i32 7
  %34 = load i32, ptr %33, align 4
  store i32 %34, ptr %7, align 4
  %35 = load i32, ptr %6, align 4
  %36 = getelementptr inbounds %struct.ImageRef, ptr %10, i32 0, i32 4
  %37 = load i32, ptr %36, align 8
  %38 = add nsw i32 %35, %37
  store i32 %38, ptr %8, align 4
  %39 = load i32, ptr %7, align 4
  %40 = getelementptr inbounds %struct.ImageRef, ptr %10, i32 0, i32 5
  %41 = load i32, ptr %40, align 4
  %42 = add nsw i32 %39, %41
  store i32 %42, ptr %9, align 4
  %43 = getelementptr inbounds %struct.SurfaceDataBounds, ptr %12, i32 0, i32 0
  %44 = load i32, ptr %43, align 4
  %45 = load i32, ptr %6, align 4
  %46 = icmp sgt i32 %44, %45
  br i1 %46, label %47, label %50

47:                                               ; preds = %24
  %48 = load i32, ptr %6, align 4
  %49 = getelementptr inbounds %struct.SurfaceDataBounds, ptr %12, i32 0, i32 0
  store i32 %48, ptr %49, align 4
  br label %50

50:                                               ; preds = %47, %24
  %51 = getelementptr inbounds %struct.SurfaceDataBounds, ptr %12, i32 0, i32 1
  %52 = load i32, ptr %51, align 4
  %53 = load i32, ptr %7, align 4
  %54 = icmp sgt i32 %52, %53
  br i1 %54, label %55, label %58

55:                                               ; preds = %50
  %56 = load i32, ptr %7, align 4
  %57 = getelementptr inbounds %struct.SurfaceDataBounds, ptr %12, i32 0, i32 1
  store i32 %56, ptr %57, align 4
  br label %58

58:                                               ; preds = %55, %50
  %59 = getelementptr inbounds %struct.SurfaceDataBounds, ptr %12, i32 0, i32 2
  %60 = load i32, ptr %59, align 4
  %61 = load i32, ptr %8, align 4
  %62 = icmp slt i32 %60, %61
  br i1 %62, label %63, label %66

63:                                               ; preds = %58
  %64 = load i32, ptr %8, align 4
  %65 = getelementptr inbounds %struct.SurfaceDataBounds, ptr %12, i32 0, i32 2
  store i32 %64, ptr %65, align 4
  br label %66

66:                                               ; preds = %63, %58
  %67 = getelementptr inbounds %struct.SurfaceDataBounds, ptr %12, i32 0, i32 3
  %68 = load i32, ptr %67, align 4
  %69 = load i32, ptr %9, align 4
  %70 = icmp slt i32 %68, %69
  br i1 %70, label %71, label %74

71:                                               ; preds = %66
  %72 = load i32, ptr %9, align 4
  %73 = getelementptr inbounds %struct.SurfaceDataBounds, ptr %12, i32 0, i32 3
  store i32 %72, ptr %73, align 4
  br label %74

74:                                               ; preds = %71, %66
  br label %75

75:                                               ; preds = %74
  %76 = load i32, ptr %5, align 4
  %77 = add nsw i32 %76, 1
  store i32 %77, ptr %5, align 4
  br label %20, !llvm.loop !9

78:                                               ; preds = %20
  %79 = load ptr, ptr %4, align 8
  call void @SurfaceData_IntersectBounds(ptr noundef %79, ptr noundef %12)
  %80 = load ptr, ptr %4, align 8
  %81 = getelementptr inbounds %struct.SurfaceDataBounds, ptr %80, i32 0, i32 0
  %82 = load i32, ptr %81, align 4
  %83 = load ptr, ptr %4, align 8
  %84 = getelementptr inbounds %struct.SurfaceDataBounds, ptr %83, i32 0, i32 2
  %85 = load i32, ptr %84, align 4
  %86 = icmp slt i32 %82, %85
  br i1 %86, label %87, label %95

87:                                               ; preds = %78
  %88 = load ptr, ptr %4, align 8
  %89 = getelementptr inbounds %struct.SurfaceDataBounds, ptr %88, i32 0, i32 1
  %90 = load i32, ptr %89, align 4
  %91 = load ptr, ptr %4, align 8
  %92 = getelementptr inbounds %struct.SurfaceDataBounds, ptr %91, i32 0, i32 3
  %93 = load i32, ptr %92, align 4
  %94 = icmp slt i32 %90, %93
  br label %95

95:                                               ; preds = %87, %78
  %96 = phi i1 [ false, %78 ], [ %94, %87 ]
  %97 = zext i1 %96 to i32
  ret i32 %97
}