; Function Attrs: nounwind uwtable
define hidden range(i32 0, 2) i32 @RefineBounds(ptr nocapture noundef readonly %0, ptr noundef %1) local_unnamed_addr #0 {
  %3 = alloca %struct.SurfaceDataBounds, align 16
  %4 = load i32, ptr %0, align 8
  %5 = getelementptr inbounds i8, ptr %3, i64 4
  %6 = getelementptr inbounds i8, ptr %3, i64 12
  %7 = getelementptr inbounds i8, ptr %3, i64 8
  store <4 x i32> <i32 2147483647, i32 2147483647, i32 -2147483648, i32 -2147483648>, ptr %3, align 16
  %8 = icmp sgt i32 %4, 0
  br i1 %8, label %.lr.ph, label %._crit_edge

.lr.ph:                                           ; preds = %2
  %9 = getelementptr inbounds i8, ptr %0, i64 8
  %10 = load ptr, ptr %9, align 8
  %wide.trip.count = zext nneg i32 %4 to i64
  br label %11

11:                                               ; preds = %.lr.ph, %31
  %indvars.iv = phi i64 [ 0, %.lr.ph ], [ %indvars.iv.next, %31 ]
  %.sroa.3.0.copyload2327 = phi i32 [ 2147483647, %.lr.ph ], [ %.sroa.3.0.copyload22, %31 ]
  %12 = phi i32 [ 2147483647, %.lr.ph ], [ %24, %31 ]
  %13 = phi i32 [ -2147483648, %.lr.ph ], [ %28, %31 ]
  %14 = phi i32 [ -2147483648, %.lr.ph ], [ %32, %31 ]
  %15 = getelementptr inbounds %struct.ImageRef, ptr %10, i64 %indvars.iv
  %.sroa.1.0..sroa_idx = getelementptr inbounds i8, ptr %15, i64 24
  %.sroa.1.0.copyload = load i32, ptr %.sroa.1.0..sroa_idx, align 8
  %.sroa.2.0..sroa_idx = getelementptr inbounds i8, ptr %15, i64 28
  %.sroa.2.0.copyload = load i32, ptr %.sroa.2.0..sroa_idx, align 4
  %.sroa.3.0..sroa_idx = getelementptr inbounds i8, ptr %15, i64 32
  %.sroa.3.0.copyload = load i32, ptr %.sroa.3.0..sroa_idx, align 8
  %.sroa.4.0..sroa_idx = getelementptr inbounds i8, ptr %15, i64 36
  %.sroa.4.0.copyload = load i32, ptr %.sroa.4.0..sroa_idx, align 4
  %16 = add nsw i32 %.sroa.3.0.copyload, %.sroa.1.0.copyload
  %17 = add nsw i32 %.sroa.4.0.copyload, %.sroa.2.0.copyload
  %18 = icmp sgt i32 %.sroa.3.0.copyload2327, %.sroa.3.0.copyload
  br i1 %18, label %19, label %20

19:                                               ; preds = %11
  store i32 %.sroa.3.0.copyload, ptr %3, align 16
  br label %20

20:                                               ; preds = %19, %11
  %.sroa.3.0.copyload22 = phi i32 [ %.sroa.3.0.copyload, %19 ], [ %.sroa.3.0.copyload2327, %11 ]
  %21 = icmp sgt i32 %12, %.sroa.4.0.copyload
  br i1 %21, label %22, label %23

22:                                               ; preds = %20
  store i32 %.sroa.4.0.copyload, ptr %5, align 4
  br label %23

23:                                               ; preds = %22, %20
  %24 = phi i32 [ %.sroa.4.0.copyload, %22 ], [ %12, %20 ]
  %25 = icmp slt i32 %13, %16
  br i1 %25, label %26, label %27

26:                                               ; preds = %23
  store i32 %16, ptr %7, align 8
  br label %27

27:                                               ; preds = %26, %23
  %28 = phi i32 [ %16, %26 ], [ %13, %23 ]
  %29 = icmp slt i32 %14, %17
  br i1 %29, label %30, label %31

30:                                               ; preds = %27
  store i32 %17, ptr %6, align 4
  br label %31

31:                                               ; preds = %27, %30
  %32 = phi i32 [ %14, %27 ], [ %17, %30 ]
  %indvars.iv.next = add nuw nsw i64 %indvars.iv, 1
  %exitcond.not = icmp eq i64 %indvars.iv.next, %wide.trip.count
  br i1 %exitcond.not, label %._crit_edge, label %11, !llvm.loop !9

._crit_edge:                                      ; preds = %31, %2
  call void @SurfaceData_IntersectBounds(ptr noundef %1, ptr noundef nonnull %3) #10
  %33 = load i32, ptr %1, align 4
  %34 = getelementptr inbounds i8, ptr %1, i64 8
  %35 = load i32, ptr %34, align 4
  %36 = icmp slt i32 %33, %35
  br i1 %36, label %37, label %44

37:                                               ; preds = %._crit_edge
  %38 = getelementptr inbounds i8, ptr %1, i64 4
  %39 = load i32, ptr %38, align 4
  %40 = getelementptr inbounds i8, ptr %1, i64 12
  %41 = load i32, ptr %40, align 4
  %42 = icmp slt i32 %39, %41
  %43 = zext i1 %42 to i32
  br label %44

44:                                               ; preds = %37, %._crit_edge
  %45 = phi i32 [ 0, %._crit_edge ], [ %43, %37 ]
  ret i32 %45
}